target datalayout = "e-m:e-p270:32:32-p271:32:32-p272:64:64-i64:64-i128:128-f80:128-n8:16:32:64-S128"
target triple = "x86_64-pc-linux-gnu"

%struct.quicklistNode = type { ptr, ptr, ptr, i64, i32 }

; Function Attrs: nounwind uwtable
define dso_local ptr @quicklistCreateNode() #0 {
  %1 = alloca ptr, align 8
  call void @llvm.lifetime.start.p0(i64 8, ptr %1) #10
  %2 = call noalias ptr @zmalloc(i64 noundef 40) #11
  store ptr %2, ptr %1, align 8, !tbaa !12
  %3 = load ptr, ptr %1, align 8, !tbaa !12
  %4 = getelementptr inbounds nuw %struct.quicklistNode, ptr %3, i32 0, i32 2
  store ptr null, ptr %4, align 8, !tbaa !16
  %5 = load ptr, ptr %1, align 8, !tbaa !12
  %6 = getelementptr inbounds nuw %struct.quicklistNode, ptr %5, i32 0, i32 4
  %7 = load i32, ptr %6, align 8
  %8 = and i32 %7, -65536
  %9 = or i32 %8, 0
  store i32 %9, ptr %6, align 8
  %10 = load ptr, ptr %1, align 8, !tbaa !12
  %11 = getelementptr inbounds nuw %struct.quicklistNode, ptr %10, i32 0, i32 3
  store i64 0, ptr %11, align 8, !tbaa !19
  %12 = load ptr, ptr %1, align 8, !tbaa !12
  %13 = getelementptr inbounds nuw %struct.quicklistNode, ptr %12, i32 0, i32 0
  store ptr null, ptr %13, align 8, !tbaa !20
  %14 = load ptr, ptr %1, align 8, !tbaa !12
  %15 = getelementptr inbounds nuw %struct.quicklistNode, ptr %14, i32 0, i32 1
  store ptr null, ptr %15, align 8, !tbaa !21
  %16 = load ptr, ptr %1, align 8, !tbaa !12
  %17 = getelementptr inbounds nuw %struct.quicklistNode, ptr %16, i32 0, i32 4
  %18 = load i32, ptr %17, align 8
  %19 = and i32 %18, -196609
  %20 = or i32 %19, 65536
  store i32 %20, ptr %17, align 8
  %21 = load ptr, ptr %1, align 8, !tbaa !12
  %22 = getelementptr inbounds nuw %struct.quicklistNode, ptr %21, i32 0, i32 4
  %23 = load i32, ptr %22, align 8
  %24 = and i32 %23, -786433
  %25 = or i32 %24, 524288
  store i32 %25, ptr %22, align 8
  %26 = load ptr, ptr %1, align 8, !tbaa !12
  %27 = getelementptr inbounds nuw %struct.quicklistNode, ptr %26, i32 0, i32 4
  %28 = load i32, ptr %27, align 8
  %29 = and i32 %28, -1048577
  %30 = or i32 %29, 0
  store i32 %30, ptr %27, align 8
  %31 = load ptr, ptr %1, align 8, !tbaa !12
  %32 = getelementptr inbounds nuw %struct.quicklistNode, ptr %31, i32 0, i32 4
  %33 = load i32, ptr %32, align 8
  %34 = and i32 %33, -4194305
  %35 = or i32 %34, 0
  store i32 %35, ptr %32, align 8
  %36 = load ptr, ptr %1, align 8, !tbaa !12
  call void @llvm.lifetime.end.p0(i64 8, ptr %1) #10
  ret ptr %36
}

; Function Attrs: nounwind uwtable
define dso_local ptr @_quicklistSplitNode(ptr noundef %0, i32 noundef %1, i32 noundef %2) #0 {
  %4 = alloca ptr, align 8
  %5 = alloca i32, align 4
  %6 = alloca i32, align 4
  %7 = alloca i64, align 8
  %8 = alloca ptr, align 8
  %9 = alloca i32, align 4
  %10 = alloca i32, align 4
  %11 = alloca i32, align 4
  %12 = alloca i32, align 4
  store ptr %0, ptr %4, align 8, !tbaa !12
  store i32 %1, ptr %5, align 4, !tbaa !14
  store i32 %2, ptr %6, align 4, !tbaa !14
  call void @llvm.lifetime.start.p0(i64 8, ptr %7) #10
  %13 = load ptr, ptr %4, align 8, !tbaa !12
  %14 = getelementptr inbounds nuw %struct.quicklistNode, ptr %13, i32 0, i32 3
  %15 = load i64, ptr %14, align 8, !tbaa !19
  store i64 %15, ptr %7, align 8, !tbaa !5
  call void @llvm.lifetime.start.p0(i64 8, ptr %8) #10
  %16 = call ptr @quicklistCreateNode()
  store ptr %16, ptr %8, align 8, !tbaa !12
  %17 = load i64, ptr %7, align 8, !tbaa !5
  %18 = call noalias ptr @zmalloc(i64 noundef %17) #11
  %19 = load ptr, ptr %8, align 8, !tbaa !12
  %20 = getelementptr inbounds nuw %struct.quicklistNode, ptr %19, i32 0, i32 2
  store ptr %18, ptr %20, align 8, !tbaa !16
  %21 = load ptr, ptr %8, align 8, !tbaa !12
  %22 = getelementptr inbounds nuw %struct.quicklistNode, ptr %21, i32 0, i32 2
  %23 = load ptr, ptr %22, align 8, !tbaa !16
  %24 = load ptr, ptr %4, align 8, !tbaa !12
  %25 = getelementptr inbounds nuw %struct.quicklistNode, ptr %24, i32 0, i32 2
  %26 = load ptr, ptr %25, align 8, !tbaa !16
  %27 = load i64, ptr %7, align 8, !tbaa !5
  call void @llvm.memcpy.p0.p0.i64(ptr align 1 %23, ptr align 1 %26, i64 %27, i1 false)
  %28 = load i32, ptr %5, align 4, !tbaa !14
  %29 = icmp slt i32 %28, 0
  br i1 %29, label %30, label %37

30:                                               ; preds = %3
  %31 = load ptr, ptr %4, align 8, !tbaa !12
  %32 = getelementptr inbounds nuw %struct.quicklistNode, ptr %31, i32 0, i32 4
  %33 = load i32, ptr %32, align 8
  %34 = and i32 %33, 65535
  %35 = load i32, ptr %5, align 4, !tbaa !14
  %36 = add nsw i32 %34, %35
  store i32 %36, ptr %5, align 4, !tbaa !14
  br label %37

37:                                               ; preds = %30, %3
  call void @llvm.lifetime.start.p0(i64 4, ptr %9) #10
  %38 = load i32, ptr %6, align 4, !tbaa !14
  %39 = icmp ne i32 %38, 0
  br i1 %39, label %40, label %43

40:                                               ; preds = %37
  %41 = load i32, ptr %5, align 4, !tbaa !14
  %42 = add nsw i32 %41, 1
  br label %44

43:                                               ; preds = %37
  br label %44

44:                                               ; preds = %43, %40
  %45 = phi i32 [ %42, %40 ], [ 0, %43 ]
  store i32 %45, ptr %9, align 4, !tbaa !14
  call void @llvm.lifetime.start.p0(i64 4, ptr %10) #10
  %46 = load i32, ptr %6, align 4, !tbaa !14
  %47 = icmp ne i32 %46, 0
  br i1 %47, label %48, label %49

48:                                               ; preds = %44
  br label %51

49:                                               ; preds = %44
  %50 = load i32, ptr %5, align 4, !tbaa !14
  br label %51

51:                                               ; preds = %49, %48
  %52 = phi i32 [ -1, %48 ], [ %50, %49 ]
  store i32 %52, ptr %10, align 4, !tbaa !14
  call void @llvm.lifetime.start.p0(i64 4, ptr %11) #10
  %53 = load i32, ptr %6, align 4, !tbaa !14
  %54 = icmp ne i32 %53, 0
  br i1 %54, label %55, label %56

55:                                               ; preds = %51
  br label %58

56:                                               ; preds = %51
  %57 = load i32, ptr %5, align 4, !tbaa !14
  br label %58

58:                                               ; preds = %56, %55
  %59 = phi i32 [ 0, %55 ], [ %57, %56 ]
  store i32 %59, ptr %11, align 4, !tbaa !14
  call void @llvm.lifetime.start.p0(i64 4, ptr %12) #10
  %60 = load i32, ptr %6, align 4, !tbaa !14
  %61 = icmp ne i32 %60, 0
  br i1 %61, label %62, label %65

62:                                               ; preds = %58
  %63 = load i32, ptr %5, align 4, !tbaa !14
  %64 = add nsw i32 %63, 1
  br label %66

65:                                               ; preds = %58
  br label %66

66:                                               ; preds = %65, %62
  %67 = phi i32 [ %64, %62 ], [ -1, %65 ]
  store i32 %67, ptr %12, align 4, !tbaa !14
  %68 = load ptr, ptr %4, align 8, !tbaa !12
  %69 = getelementptr inbounds nuw %struct.quicklistNode, ptr %68, i32 0, i32 2
  %70 = load ptr, ptr %69, align 8, !tbaa !16
  %71 = load i32, ptr %9, align 4, !tbaa !14
  %72 = sext i32 %71 to i64
  %73 = load i32, ptr %10, align 4, !tbaa !14
  %74 = sext i32 %73 to i64
  %75 = call ptr @lpDeleteRange(ptr noundef %70, i64 noundef %72, i64 noundef %74)
  %76 = load ptr, ptr %4, align 8, !tbaa !12
  %77 = getelementptr inbounds nuw %struct.quicklistNode, ptr %76, i32 0, i32 2
  store ptr %75, ptr %77, align 8, !tbaa !16
  %78 = load ptr, ptr %4, align 8, !tbaa !12
  %79 = getelementptr inbounds nuw %struct.quicklistNode, ptr %78, i32 0, i32 2
  %80 = load ptr, ptr %79, align 8, !tbaa !16
  %81 = call i64 @lpLength(ptr noundef %80)
  %82 = trunc i64 %81 to i32
  %83 = load ptr, ptr %4, align 8, !tbaa !12
  %84 = getelementptr inbounds nuw %struct.quicklistNode, ptr %83, i32 0, i32 4
  %85 = load i32, ptr %84, align 8
  %86 = and i32 %82, 65535
  %87 = and i32 %85, -65536
  %88 = or i32 %87, %86
  store i32 %88, ptr %84, align 8
  br label %89

89:                                               ; preds = %66
  %90 = load ptr, ptr %4, align 8, !tbaa !12
  %91 = getelementptr inbounds nuw %struct.quicklistNode, ptr %90, i32 0, i32 2
  %92 = load ptr, ptr %91, align 8, !tbaa !16
  %93 = call i64 @lpBytes(ptr noundef %92)
  %94 = load ptr, ptr %4, align 8, !tbaa !12
  %95 = getelementptr inbounds nuw %struct.quicklistNode, ptr %94, i32 0, i32 3
  store i64 %93, ptr %95, align 8, !tbaa !19
  br label %96

96:                                               ; preds = %89
  br label %97

97:                                               ; preds = %96
  %98 = load ptr, ptr %8, align 8, !tbaa !12
  %99 = getelementptr inbounds nuw %struct.quicklistNode, ptr %98, i32 0, i32 2
  %100 = load ptr, ptr %99, align 8, !tbaa !16
  %101 = load i32, ptr %11, align 4, !tbaa !14
  %102 = sext i32 %101 to i64
  %103 = load i32, ptr %12, align 4, !tbaa !14
  %104 = sext i32 %103 to i64
  %105 = call ptr @lpDeleteRange(ptr noundef %100, i64 noundef %102, i64 noundef %104)
  %106 = load ptr, ptr %8, align 8, !tbaa !12
  %107 = getelementptr inbounds nuw %struct.quicklistNode, ptr %106, i32 0, i32 2
  store ptr %105, ptr %107, align 8, !tbaa !16
  %108 = load ptr, ptr %8, align 8, !tbaa !12
  %109 = getelementptr inbounds nuw %struct.quicklistNode, ptr %108, i32 0, i32 2
  %110 = load ptr, ptr %109, align 8, !tbaa !16
  %111 = call i64 @lpLength(ptr noundef %110)
  %112 = trunc i64 %111 to i32
  %113 = load ptr, ptr %8, align 8, !tbaa !12
  %114 = getelementptr inbounds nuw %struct.quicklistNode, ptr %113, i32 0, i32 4
  %115 = load i32, ptr %114, align 8
  %116 = and i32 %112, 65535
  %117 = and i32 %115, -65536
  %118 = or i32 %117, %116
  store i32 %118, ptr %114, align 8
  br label %119

119:                                              ; preds = %97
  %120 = load ptr, ptr %8, align 8, !tbaa !12
  %121 = getelementptr inbounds nuw %struct.quicklistNode, ptr %120, i32 0, i32 2
  %122 = load ptr, ptr %121, align 8, !tbaa !16
  %123 = call i64 @lpBytes(ptr noundef %122)
  %124 = load ptr, ptr %8, align 8, !tbaa !12
  %125 = getelementptr inbounds nuw %struct.quicklistNode, ptr %124, i32 0, i32 3
  store i64 %123, ptr %125, align 8, !tbaa !19
  br label %126

126:                                              ; preds = %119
  br label %127

127:                                              ; preds = %126
  %128 = load ptr, ptr %8, align 8, !tbaa !12
  call void @llvm.lifetime.end.p0(i64 4, ptr %12) #10
  call void @llvm.lifetime.end.p0(i64 4, ptr %11) #10
  call void @llvm.lifetime.end.p0(i64 4, ptr %10) #10
  call void @llvm.lifetime.end.p0(i64 4, ptr %9) #10
  call void @llvm.lifetime.end.p0(i64 8, ptr %8) #10
  call void @llvm.lifetime.end.p0(i64 8, ptr %7) #10
  ret ptr %128
}