; Function Attrs: nounwind uwtable
define dso_local noalias noundef ptr @_quicklistSplitNode(ptr noundef captures(none) %0, i32 noundef %1, i32 noundef %2) local_unnamed_addr #1 {
  %4 = getelementptr inbounds nuw i8, ptr %0, i64 24
  %5 = load i64, ptr %4, align 8, !tbaa !15
  %6 = tail call noalias dereferenceable_or_null(40) ptr @zmalloc(i64 noundef 40) #22
  %7 = getelementptr inbounds nuw i8, ptr %6, i64 32
  %8 = load i32, ptr %7, align 8
  tail call void @llvm.memset.p0.i64(ptr noundef nonnull align 8 dereferenceable(16) %6, i8 0, i64 16, i1 false)
  %9 = tail call noalias ptr @zmalloc(i64 noundef %5) #22
  %10 = getelementptr inbounds nuw i8, ptr %0, i64 16
  %11 = load ptr, ptr %10, align 8, !tbaa !9
  tail call void @llvm.memcpy.p0.p0.i64(ptr align 1 %9, ptr align 1 %11, i64 %5, i1 false)
  %12 = icmp slt i32 %1, 0
  br i1 %12, label %13, label %18

13:                                               ; preds = %3
  %14 = getelementptr inbounds nuw i8, ptr %0, i64 32
  %15 = load i32, ptr %14, align 8
  %16 = and i32 %15, 65535
  %17 = add nsw i32 %16, %1
  br label %18

18:                                               ; preds = %13, %3
  %.0 = phi i32 [ %17, %13 ], [ %1, %3 ]
  %19 = and i32 %8, -6291456
  %20 = or disjoint i32 %19, 589824
  %21 = getelementptr inbounds nuw i8, ptr %6, i64 24
  %22 = getelementptr inbounds nuw i8, ptr %6, i64 16
  %.not = icmp eq i32 %2, 0
  %23 = add nsw i32 %.0, 1
  %24 = select i1 %.not, i32 0, i32 %23
  %25 = select i1 %.not, i32 %.0, i32 -1
  %26 = select i1 %.not, i32 %.0, i32 0
  %27 = select i1 %.not, i32 -1, i32 %23
  %28 = sext i32 %24 to i64
  %29 = sext i32 %25 to i64
  %30 = tail call ptr @lpDeleteRange(ptr noundef %11, i64 noundef %28, i64 noundef %29) #23
  store ptr %30, ptr %10, align 8, !tbaa !9
  %31 = tail call i64 @lpLength(ptr noundef %30) #23
  %32 = trunc i64 %31 to i32
  %33 = getelementptr inbounds nuw i8, ptr %0, i64 32
  %34 = load i32, ptr %33, align 8
  %35 = and i32 %32, 65535
  %36 = and i32 %34, -65536
  %37 = or disjoint i32 %36, %35
  store i32 %37, ptr %33, align 8
  %38 = load ptr, ptr %10, align 8, !tbaa !9
  %39 = tail call i64 @lpBytes(ptr noundef %38) #23
  store i64 %39, ptr %4, align 8, !tbaa !15
  %40 = sext i32 %26 to i64
  %41 = sext i32 %27 to i64
  %42 = tail call ptr @lpDeleteRange(ptr noundef %9, i64 noundef %40, i64 noundef %41) #23
  store ptr %42, ptr %22, align 8, !tbaa !9
  %43 = tail call i64 @lpLength(ptr noundef %42) #23
  %44 = trunc i64 %43 to i32
  %45 = and i32 %44, 65535
  %46 = or disjoint i32 %45, %20
  store i32 %46, ptr %7, align 8
  %47 = tail call i64 @lpBytes(ptr noundef %42) #23
  store i64 %47, ptr %21, align 8, !tbaa !15
  ret ptr %6
}